; Function Attrs: mustprogress uwtable
define hidden void @_ZN2cv8tinyxml212XMLAttribute12SetAttributeEf(ptr noundef nonnull align 8 captures(none) dereferenceable(72) initializes((48, 56)) %0, float noundef %1) local_unnamed_addr #4 align 2 {
  %3 = alloca [200 x i8], align 16
  call void @llvm.lifetime.start.p0(i64 200, ptr nonnull %3) #24
  %4 = fpext float %1 to double
  %5 = call i32 (ptr, i64, ptr, ...) @snprintf(ptr noundef nonnull dereferenceable(1) %3, i64 noundef 200, ptr noundef nonnull @.str.2, double noundef %4) #24
  %6 = getelementptr inbounds nuw i8, ptr %0, i64 32
  %7 = load i32, ptr %6, align 8, !tbaa !3
  %8 = and i32 %7, 512
  %.not.i.i = icmp eq i32 %8, 0
  br i1 %.not.i.i, label %_ZN2cv8tinyxml27StrPair6SetStrEPKci.exit, label %9

9:                                                ; preds = %2
  %10 = getelementptr inbounds nuw i8, ptr %0, i64 40
  %11 = load ptr, ptr %10, align 8, !tbaa !10
  %12 = icmp eq ptr %11, null
  br i1 %12, label %_ZN2cv8tinyxml27StrPair6SetStrEPKci.exit, label %13

13:                                               ; preds = %9
  tail call void @_ZdaPv(ptr noundef nonnull %11) #23
  br label %_ZN2cv8tinyxml27StrPair6SetStrEPKci.exit

_ZN2cv8tinyxml27StrPair6SetStrEPKci.exit:         ; preds = %2, %9, %13
  store i32 0, ptr %6, align 8, !tbaa !3
  %14 = getelementptr inbounds nuw i8, ptr %0, i64 40
  tail call void @llvm.memset.p0.i64(ptr noundef nonnull align 8 dereferenceable(16) %14, i8 0, i64 16, i1 false)
  %15 = call i64 @strlen(ptr noundef nonnull readonly dereferenceable(1) %3) #26
  %16 = add i64 %15, 1
  %17 = tail call noalias noundef nonnull ptr @_Znam(i64 noundef %16) #27
  store ptr %17, ptr %14, align 8, !tbaa !10
  call void @llvm.memcpy.p0.p0.i64(ptr nonnull align 1 %17, ptr nonnull readonly align 16 %3, i64 %16, i1 false)
  %18 = getelementptr inbounds nuw i8, ptr %17, i64 %15
  %19 = getelementptr inbounds nuw i8, ptr %0, i64 48
  store ptr %18, ptr %19, align 8, !tbaa !11
  store i32 512, ptr %6, align 8, !tbaa !3
  call void @llvm.lifetime.end.p0(i64 200, ptr nonnull %3) #24
  ret void
}